target datalayout = "e-m:e-p270:32:32-p271:32:32-p272:64:64-i64:64-i128:128-f80:128-n8:16:32:64-S128"
target triple = "x86_64-pc-linux-gnu"

%struct.expert_field = type { i32, i32 }

@hf_isis_lsp_purge_orig_id_num = internal global i32 0, align 4
@hf_isis_lsp_purge_orig_id_system_id = internal global i32 0, align 4
@ei_isis_lsp_short_clv = internal global %struct.expert_field zeroinitializer, align 4
@ei_isis_lsp_malformed_subtlv = internal global %struct.expert_field zeroinitializer, align 4
@.str.947 = private unnamed_addr constant [45 x i8] c"Too short LSP Purge Originator ID (%d vs %d)\00", align 1
@.str.948 = private unnamed_addr constant [52 x i8] c"Invalid number of System IDs: %u (should be 1 or 2)\00", align 1
@.str.949 = private unnamed_addr constant [44 x i8] c"Invalid Purge Originator ID TLV length: %u \00", align 1

; Function Attrs: null_pointer_is_valid sspstrong uwtable
define internal void @dissect_lsp_purge_orig_id_clv(ptr noundef %0, ptr noundef %1, ptr noundef %2, i32 noundef %3, ptr noundef %4, i32 noundef %5) #0 {
  %7 = alloca ptr, align 8
  %8 = alloca ptr, align 8
  %9 = alloca ptr, align 8
  %10 = alloca i32, align 4
  %11 = alloca ptr, align 8
  %12 = alloca i32, align 4
  %13 = alloca i32, align 4
  %14 = alloca i8, align 1
  %15 = alloca i32, align 4
  %16 = alloca i32, align 4
  store ptr %0, ptr %7, align 8
  store ptr %1, ptr %8, align 8
  store ptr %2, ptr %9, align 8
  store i32 %3, ptr %10, align 4
  store ptr %4, ptr %11, align 8
  store i32 %5, ptr %12, align 4
  call void @llvm.lifetime.start.p0(i64 4, ptr %13) #4
  store i32 7, ptr %13, align 4
  call void @llvm.lifetime.start.p0(i64 1, ptr %14) #4
  call void @llvm.lifetime.start.p0(i64 4, ptr %15) #4
  %17 = load i32, ptr %12, align 4
  %18 = load i32, ptr %13, align 4
  %19 = icmp slt i32 %17, %18
  br i1 %19, label %20, label %29

20:                                               ; preds = %6
  %21 = load ptr, ptr %9, align 8
  %22 = load ptr, ptr %8, align 8
  %23 = load ptr, ptr %7, align 8
  %24 = load i32, ptr %10, align 4
  %25 = load i32, ptr %12, align 4
  %26 = load i32, ptr %12, align 4
  %27 = load i32, ptr %13, align 4
  %28 = call ptr (ptr, ptr, ptr, ptr, i32, i32, ptr, ...) @proto_tree_add_expert_format(ptr noundef %21, ptr noundef %22, ptr noundef @ei_isis_lsp_short_clv, ptr noundef %23, i32 noundef %24, i32 noundef %25, ptr noundef @.str.947, i32 noundef %26, i32 noundef %27)
  store i32 1, ptr %16, align 4
  br label %93

29:                                               ; preds = %6
  %30 = load ptr, ptr %7, align 8
  %31 = load i32, ptr %10, align 4
  %32 = call zeroext i8 @tvb_get_uint8(ptr noundef %30, i32 noundef %31)
  store i8 %32, ptr %14, align 1
  %33 = load ptr, ptr %9, align 8
  %34 = load i32, ptr @hf_isis_lsp_purge_orig_id_num, align 4
  %35 = load ptr, ptr %7, align 8
  %36 = load i32, ptr %10, align 4
  %37 = call ptr @proto_tree_add_item(ptr noundef %33, i32 noundef %34, ptr noundef %35, i32 noundef %36, i32 noundef 1, i32 noundef 0)
  %38 = load i32, ptr %10, align 4
  %39 = add i32 %38, 1
  store i32 %39, ptr %10, align 4
  %40 = load i32, ptr %12, align 4
  %41 = add i32 %40, -1
  store i32 %41, ptr %12, align 4
  %42 = load i8, ptr %14, align 1
  %43 = zext i8 %42 to i32
  %44 = icmp ne i32 %43, 1
  br i1 %44, label %45, label %58

45:                                               ; preds = %29
  %46 = load i8, ptr %14, align 1
  %47 = zext i8 %46 to i32
  %48 = icmp ne i32 %47, 2
  br i1 %48, label %49, label %58

49:                                               ; preds = %45
  %50 = load ptr, ptr %9, align 8
  %51 = load ptr, ptr %8, align 8
  %52 = load ptr, ptr %7, align 8
  %53 = load i32, ptr %10, align 4
  %54 = load i32, ptr %12, align 4
  %55 = load i8, ptr %14, align 1
  %56 = zext i8 %55 to i32
  %57 = call ptr (ptr, ptr, ptr, ptr, i32, i32, ptr, ...) @proto_tree_add_expert_format(ptr noundef %50, ptr noundef %51, ptr noundef @ei_isis_lsp_malformed_subtlv, ptr noundef %52, i32 noundef %53, i32 noundef %54, ptr noundef @.str.948, i32 noundef %56)
  store i32 1, ptr %16, align 4
  br label %93

58:                                               ; preds = %45, %29
  %59 = load i32, ptr %12, align 4
  %60 = load i8, ptr %14, align 1
  %61 = zext i8 %60 to i32
  %62 = mul i32 %61, 6
  %63 = icmp slt i32 %59, %62
  br i1 %63, label %64, label %73

64:                                               ; preds = %58
  %65 = load ptr, ptr %9, align 8
  %66 = load ptr, ptr %8, align 8
  %67 = load ptr, ptr %7, align 8
  %68 = load i32, ptr %10, align 4
  %69 = load i32, ptr %12, align 4
  %70 = load i32, ptr %12, align 4
  %71 = add i32 %70, 1
  %72 = call ptr (ptr, ptr, ptr, ptr, i32, i32, ptr, ...) @proto_tree_add_expert_format(ptr noundef %65, ptr noundef %66, ptr noundef @ei_isis_lsp_malformed_subtlv, ptr noundef %67, i32 noundef %68, i32 noundef %69, ptr noundef @.str.949, i32 noundef %71)
  store i32 1, ptr %16, align 4
  br label %93

73:                                               ; preds = %58
  store i32 0, ptr %15, align 4
  br label %74

74:                                               ; preds = %89, %73
  %75 = load i32, ptr %15, align 4
  %76 = load i8, ptr %14, align 1
  %77 = zext i8 %76 to i32
  %78 = icmp slt i32 %75, %77
  br i1 %78, label %79, label %92

79:                                               ; preds = %74
  %80 = load ptr, ptr %9, align 8
  %81 = load i32, ptr @hf_isis_lsp_purge_orig_id_system_id, align 4
  %82 = load ptr, ptr %7, align 8
  %83 = load i32, ptr %10, align 4
  %84 = call ptr @proto_tree_add_item(ptr noundef %80, i32 noundef %81, ptr noundef %82, i32 noundef %83, i32 noundef 6, i32 noundef 0)
  %85 = load i32, ptr %10, align 4
  %86 = add i32 %85, 6
  store i32 %86, ptr %10, align 4
  %87 = load i32, ptr %12, align 4
  %88 = sub i32 %87, 6
  store i32 %88, ptr %12, align 4
  br label %89

89:                                               ; preds = %79
  %90 = load i32, ptr %15, align 4
  %91 = add i32 %90, 1
  store i32 %91, ptr %15, align 4
  br label %74, !llvm.loop !30

92:                                               ; preds = %74
  store i32 0, ptr %16, align 4
  br label %93

93:                                               ; preds = %92, %64, %49, %20
  call void @llvm.lifetime.end.p0(i64 4, ptr %15) #4
  call void @llvm.lifetime.end.p0(i64 1, ptr %14) #4
  call void @llvm.lifetime.end.p0(i64 4, ptr %13) #4
  %94 = load i32, ptr %16, align 4
  switch i32 %94, label %96 [
    i32 0, label %95
    i32 1, label %95
  ]

95:                                               ; preds = %93, %93
  ret void

96:                                               ; preds = %93
  unreachable
}