; Function Attrs: null_pointer_is_valid sspstrong uwtable
define internal void @dissect_lsp_purge_orig_id_clv(ptr noundef %0, ptr noundef %1, ptr noundef %2, i32 noundef %3, ptr readnone captures(none) %4, i32 noundef %5) #0 {
  %7 = icmp slt i32 %5, 7
  br i1 %7, label %8, label %10

8:                                                ; preds = %6
  %9 = tail call ptr (ptr, ptr, ptr, ptr, i32, i32, ptr, ...) @proto_tree_add_expert_format(ptr noundef %2, ptr noundef %1, ptr noundef nonnull @ei_isis_lsp_short_clv, ptr noundef %0, i32 noundef %3, i32 noundef %5, ptr noundef nonnull @.str.947, i32 noundef %5, i32 noundef 7)
  br label %.loopexit

10:                                               ; preds = %6
  %11 = tail call zeroext i8 @tvb_get_uint8(ptr noundef %0, i32 noundef %3)
  %12 = load i32, ptr @hf_isis_lsp_purge_orig_id_num, align 4
  %13 = tail call ptr @proto_tree_add_item(ptr noundef %2, i32 noundef %12, ptr noundef %0, i32 noundef %3, i32 noundef 1, i32 noundef 0)
  %14 = add i32 %3, 1
  %15 = add nsw i32 %5, -1
  %16 = zext i8 %11 to i32
  %17 = add i8 %11, -3
  %or.cond = icmp ult i8 %17, -2
  br i1 %or.cond, label %18, label %20

18:                                               ; preds = %10
  %19 = tail call ptr (ptr, ptr, ptr, ptr, i32, i32, ptr, ...) @proto_tree_add_expert_format(ptr noundef %2, ptr noundef %1, ptr noundef nonnull @ei_isis_lsp_malformed_subtlv, ptr noundef %0, i32 noundef %14, i32 noundef %15, ptr noundef nonnull @.str.948, i32 noundef %16)
  br label %.loopexit

20:                                               ; preds = %10
  %21 = mul nuw nsw i32 %16, 6
  %.not = icmp samesign ugt i32 %5, %21
  br i1 %.not, label %.lr.ph, label %22

22:                                               ; preds = %20
  %23 = tail call ptr (ptr, ptr, ptr, ptr, i32, i32, ptr, ...) @proto_tree_add_expert_format(ptr noundef %2, ptr noundef %1, ptr noundef nonnull @ei_isis_lsp_malformed_subtlv, ptr noundef %0, i32 noundef %14, i32 noundef %15, ptr noundef nonnull @.str.949, i32 noundef %5)
  br label %.loopexit

.lr.ph:                                           ; preds = %20, %.lr.ph
  %.048 = phi i32 [ %27, %.lr.ph ], [ 0, %20 ]
  %.04147 = phi i32 [ %26, %.lr.ph ], [ %14, %20 ]
  %24 = load i32, ptr @hf_isis_lsp_purge_orig_id_system_id, align 4
  %25 = tail call ptr @proto_tree_add_item(ptr noundef %2, i32 noundef %24, ptr noundef %0, i32 noundef %.04147, i32 noundef 6, i32 noundef 0)
  %26 = add i32 %.04147, 6
  %27 = add nuw nsw i32 %.048, 1
  %exitcond.not = icmp eq i32 %27, %16
  br i1 %exitcond.not, label %.loopexit, label %.lr.ph, !llvm.loop !32

.loopexit:                                        ; preds = %.lr.ph, %22, %18, %8
  ret void
}